target datalayout = "e-m:e-p270:32:32-p271:32:32-p272:64:64-i64:64-i128:128-f80:128-n8:16:32:64-S128"
target triple = "x86_64-pc-linux-gnu"

@.str.14 = private unnamed_addr constant [5 x i8] c"icap\00", align 1
@proto_icap = internal global i32 0, align 4
@.str.15 = private unnamed_addr constant [5 x i8] c"http\00", align 1
@http_handle = internal global ptr null, align 8
@.str.16 = private unnamed_addr constant [9 x i8] c"tcp.port\00", align 1

; Function Attrs: null_pointer_is_valid sspstrong uwtable
define hidden void @proto_reg_handoff_icap() #0 {
  %1 = alloca ptr, align 8
  call void @llvm.lifetime.start.p0(i64 8, ptr %1) #6
  %2 = load i32, ptr @proto_icap, align 4
  %3 = call ptr @find_dissector_add_dependency(ptr noundef @.str.15, i32 noundef %2)
  store ptr %3, ptr @http_handle, align 8
  %4 = load i32, ptr @proto_icap, align 4
  %5 = call ptr @register_dissector(ptr noundef @.str.14, ptr noundef @dissect_icap, i32 noundef %4)
  store ptr %5, ptr %1, align 8
  %6 = load ptr, ptr %1, align 8
  call void @dissector_add_uint_with_preference(ptr noundef @.str.16, i32 noundef 1344, ptr noundef %6)
  %7 = load ptr, ptr %1, align 8
  call void @ssl_dissector_add(i32 noundef 0, ptr noundef %7)
  call void @llvm.lifetime.end.p0(i64 8, ptr %1) #6
  ret void
}