; Function Attrs: null_pointer_is_valid sspstrong uwtable
define hidden void @proto_reg_handoff_icap() local_unnamed_addr #0 {
  %1 = load i32, ptr @proto_icap, align 4
  %2 = tail call ptr @find_dissector_add_dependency(ptr noundef nonnull @.str.15, i32 noundef %1)
  store ptr %2, ptr @http_handle, align 8
  %3 = load i32, ptr @proto_icap, align 4
  %4 = tail call ptr @register_dissector(ptr noundef nonnull @.str.14, ptr noundef nonnull @dissect_icap, i32 noundef %3)
  tail call void @dissector_add_uint_with_preference(ptr noundef nonnull @.str.16, i32 noundef 1344, ptr noundef %4)
  tail call void @ssl_dissector_add(i32 noundef 0, ptr noundef %4)
  ret void
}